; Function Attrs: mustprogress uwtable
define internal fastcc void @_ZN12_GLOBAL__N_122MempoolSelelemReserver7reserveERKSt10shared_ptrIN3gmx20SelectionTreeElementEEi(ptr nocapture noundef nonnull align 8 dereferenceable(16) %0, ptr nocapture noundef nonnull readonly align 8 dereferenceable(16) %1, i32 noundef %2) unnamed_addr #2 align 2 personality ptr @__gxx_personality_v0 {
  %4 = load ptr, ptr %0, align 8
  %.not = icmp eq ptr %4, null
  br i1 %.not, label %6, label %5

5:                                                ; preds = %3
  tail call void @_ZN3gmx8internal13assertHandlerEPKcS2_S2_S2_i(ptr noundef nonnull @.str.18, ptr noundef nonnull @.str.23, ptr noundef nonnull @__PRETTY_FUNCTION__._ZZN12_GLOBAL__N_122MempoolSelelemReserver7reserveERKSt10shared_ptrIN3gmx20SelectionTreeElementEEiENKUlvE_clEv, ptr noundef nonnull @.str.16, i32 noundef 127) #20
  unreachable

6:                                                ; preds = %3
  %7 = load ptr, ptr %1, align 8
  tail call void @_ZN3gmx20SelectionTreeElement14mempoolReserveEi(ptr noundef nonnull align 8 dereferenceable(168) %7, i32 noundef %2)
  %8 = load ptr, ptr %1, align 8
  store ptr %8, ptr %0, align 8
  %9 = getelementptr inbounds i8, ptr %0, i64 8
  %10 = getelementptr inbounds i8, ptr %1, i64 8
  %11 = load ptr, ptr %10, align 8
  %12 = load ptr, ptr %9, align 8
  %.not.i.i.i = icmp eq ptr %11, %12
  br i1 %.not.i.i.i, label %_ZNSt10shared_ptrIN3gmx20SelectionTreeElementEEaSERKS2_.exit, label %13

13:                                               ; preds = %6
  %.not7.i.i.i = icmp eq ptr %11, null
  br i1 %.not7.i.i.i, label %_ZNSt16_Sp_counted_baseILN9__gnu_cxx12_Lock_policyE2EE15_M_add_ref_copyEv.exit.i.i.i, label %14

14:                                               ; preds = %13
  %15 = getelementptr inbounds i8, ptr %11, i64 8
  %16 = load i8, ptr @__libc_single_threaded, align 1
  %.not.i.i.i.i = icmp eq i8 %16, 0
  br i1 %.not.i.i.i.i, label %20, label %17

17:                                               ; preds = %14
  %18 = load i32, ptr %15, align 4
  %19 = add nsw i32 %18, 1
  store i32 %19, ptr %15, align 4
  br label %_ZNSt16_Sp_counted_baseILN9__gnu_cxx12_Lock_policyE2EE15_M_add_ref_copyEv.exitthread-pre-split.i.i.i

20:                                               ; preds = %14
  %21 = atomicrmw volatile add ptr %15, i32 1 acq_rel, align 4
  br label %_ZNSt16_Sp_counted_baseILN9__gnu_cxx12_Lock_policyE2EE15_M_add_ref_copyEv.exitthread-pre-split.i.i.i

_ZNSt16_Sp_counted_baseILN9__gnu_cxx12_Lock_policyE2EE15_M_add_ref_copyEv.exitthread-pre-split.i.i.i: ; preds = %20, %17
  %.pr.i.i.i = load ptr, ptr %9, align 8
  br label %_ZNSt16_Sp_counted_baseILN9__gnu_cxx12_Lock_policyE2EE15_M_add_ref_copyEv.exit.i.i.i

_ZNSt16_Sp_counted_baseILN9__gnu_cxx12_Lock_policyE2EE15_M_add_ref_copyEv.exit.i.i.i: ; preds = %_ZNSt16_Sp_counted_baseILN9__gnu_cxx12_Lock_policyE2EE15_M_add_ref_copyEv.exitthread-pre-split.i.i.i, %13
  %22 = phi ptr [ %.pr.i.i.i, %_ZNSt16_Sp_counted_baseILN9__gnu_cxx12_Lock_policyE2EE15_M_add_ref_copyEv.exitthread-pre-split.i.i.i ], [ %12, %13 ]
  %.not8.i.i.i = icmp eq ptr %22, null
  br i1 %.not8.i.i.i, label %_ZNSt16_Sp_counted_baseILN9__gnu_cxx12_Lock_policyE2EE10_M_releaseEv.exit.i.i.i, label %23

23:                                               ; preds = %_ZNSt16_Sp_counted_baseILN9__gnu_cxx12_Lock_policyE2EE15_M_add_ref_copyEv.exit.i.i.i
  %24 = getelementptr inbounds i8, ptr %22, i64 8
  %25 = load atomic i64, ptr %24 acquire, align 8
  %26 = icmp eq i64 %25, 4294967297
  %27 = trunc i64 %25 to i32
  br i1 %26, label %28, label %33

28:                                               ; preds = %23
  store i32 0, ptr %24, align 8
  %29 = getelementptr inbounds i8, ptr %22, i64 12
  store i32 0, ptr %29, align 4
  %30 = load ptr, ptr %22, align 8
  %31 = getelementptr inbounds i8, ptr %30, i64 16
  %32 = load ptr, ptr %31, align 8
  tail call void %32(ptr noundef nonnull align 8 dereferenceable(16) %22) #18
  br label %_ZNSt16_Sp_counted_baseILN9__gnu_cxx12_Lock_policyE2EE24_M_release_last_use_coldEv.exit.sink.split.i.i.i.i

33:                                               ; preds = %23
  %34 = load i8, ptr @__libc_single_threaded, align 1
  %.not.i9.i.i.i = icmp eq i8 %34, 0
  br i1 %.not.i9.i.i.i, label %37, label %35

35:                                               ; preds = %33
  %36 = add nsw i32 %27, -1
  store i32 %36, ptr %24, align 4
  br label %39

37:                                               ; preds = %33
  %38 = atomicrmw volatile add ptr %24, i32 -1 acq_rel, align 4
  br label %39

39:                                               ; preds = %37, %35
  %.0.i.i.i.i = phi i32 [ %27, %35 ], [ %38, %37 ]
  %40 = icmp eq i32 %.0.i.i.i.i, 1
  br i1 %40, label %41, label %_ZNSt16_Sp_counted_baseILN9__gnu_cxx12_Lock_policyE2EE10_M_releaseEv.exit.i.i.i

41:                                               ; preds = %39
  %42 = load ptr, ptr %22, align 8
  %43 = getelementptr inbounds i8, ptr %42, i64 16
  %44 = load ptr, ptr %43, align 8
  tail call void %44(ptr noundef nonnull align 8 dereferenceable(16) %22) #18
  %45 = getelementptr inbounds i8, ptr %22, i64 12
  %46 = load i8, ptr @__libc_single_threaded, align 1
  %.not.i.i.i.i.i.i = icmp eq i8 %46, 0
  br i1 %.not.i.i.i.i.i.i, label %50, label %47

47:                                               ; preds = %41
  %48 = load i32, ptr %45, align 4
  %49 = add nsw i32 %48, -1
  store i32 %49, ptr %45, align 4
  br label %52

50:                                               ; preds = %41
  %51 = atomicrmw volatile add ptr %45, i32 -1 acq_rel, align 4
  br label %52

52:                                               ; preds = %50, %47
  %.0.i.i.i.i.i.i = phi i32 [ %48, %47 ], [ %51, %50 ]
  %53 = icmp eq i32 %.0.i.i.i.i.i.i, 1
  br i1 %53, label %_ZNSt16_Sp_counted_baseILN9__gnu_cxx12_Lock_policyE2EE24_M_release_last_use_coldEv.exit.sink.split.i.i.i.i, label %_ZNSt16_Sp_counted_baseILN9__gnu_cxx12_Lock_policyE2EE10_M_releaseEv.exit.i.i.i

_ZNSt16_Sp_counted_baseILN9__gnu_cxx12_Lock_policyE2EE24_M_release_last_use_coldEv.exit.sink.split.i.i.i.i: ; preds = %52, %28
  %54 = load ptr, ptr %22, align 8
  %55 = getelementptr inbounds i8, ptr %54, i64 24
  %56 = load ptr, ptr %55, align 8
  tail call void %56(ptr noundef nonnull align 8 dereferenceable(16) %22) #18
  br label %_ZNSt16_Sp_counted_baseILN9__gnu_cxx12_Lock_policyE2EE10_M_releaseEv.exit.i.i.i

_ZNSt16_Sp_counted_baseILN9__gnu_cxx12_Lock_policyE2EE10_M_releaseEv.exit.i.i.i: ; preds = %_ZNSt16_Sp_counted_baseILN9__gnu_cxx12_Lock_policyE2EE24_M_release_last_use_coldEv.exit.sink.split.i.i.i.i, %52, %39, %_ZNSt16_Sp_counted_baseILN9__gnu_cxx12_Lock_policyE2EE15_M_add_ref_copyEv.exit.i.i.i
  store ptr %11, ptr %9, align 8
  br label %_ZNSt10shared_ptrIN3gmx20SelectionTreeElementEEaSERKS2_.exit

_ZNSt10shared_ptrIN3gmx20SelectionTreeElementEEaSERKS2_.exit: ; preds = %6, %_ZNSt16_Sp_counted_baseILN9__gnu_cxx12_Lock_policyE2EE10_M_releaseEv.exit.i.i.i
  ret void
}